target datalayout = "e-m:e-p270:32:32-p271:32:32-p272:64:64-i64:64-i128:128-f80:128-n8:16:32:64-S128"
target triple = "x86_64-pc-linux-gnu"

@H5O_init_g = external global i8, align 1
@H5_libterm_g = external global i8, align 1
@.str = private unnamed_addr constant [104 x i8] c"generated/home/dtcxzyw/WorkSpace/Projects/compilers/llvm-opt-benchmark/bench/hdf5/hdf5/src/H5Omessage.c\00", align 1
@H5E_OHDR_g = external global i64, align 8
@__func__.H5O__msg_append_real = private unnamed_addr constant [21 x i8] c"H5O__msg_append_real\00", align 1
@H5E_NOSPACE_g = external global i64, align 8
@.str.6 = private unnamed_addr constant [29 x i8] c"unable to create new message\00", align 1
@H5E_CANTCOPY_g = external global i64, align 8
@.str.7 = private unnamed_addr constant [24 x i8] c"unable to write message\00", align 1

; Function Attrs: nounwind uwtable
define i32 @H5O__msg_append_real(ptr noundef %0, ptr noundef %1, ptr noundef %2, i32 noundef %3, i32 noundef %4, ptr noundef %5) #0 {
  %7 = alloca ptr, align 8
  %8 = alloca ptr, align 8
  %9 = alloca ptr, align 8
  %10 = alloca i32, align 4
  %11 = alloca i32, align 4
  %12 = alloca ptr, align 8
  %13 = alloca i64, align 8
  %14 = alloca i32, align 4
  %15 = alloca i8, align 1
  store ptr %0, ptr %7, align 8, !tbaa !22
  store ptr %1, ptr %8, align 8, !tbaa !11
  store ptr %2, ptr %9, align 8, !tbaa !23
  store i32 %3, ptr %10, align 4, !tbaa !8
  store i32 %4, ptr %11, align 4, !tbaa !8
  store ptr %5, ptr %12, align 8, !tbaa !10
  call void @llvm.lifetime.start.p0(i64 8, ptr %13) #5
  call void @llvm.lifetime.start.p0(i64 4, ptr %14) #5
  store i32 0, ptr %14, align 4, !tbaa !8
  call void @llvm.lifetime.start.p0(i64 1, ptr %15) #5
  store i8 0, ptr %15, align 1, !tbaa !13
  %16 = load i8, ptr @H5O_init_g, align 1, !tbaa !13, !range !15, !noundef !16
  %17 = trunc i8 %16 to i1
  br i1 %17, label %22, label %18

18:                                               ; preds = %6
  %19 = load i8, ptr @H5_libterm_g, align 1, !tbaa !13, !range !15, !noundef !16
  %20 = trunc i8 %19 to i1
  %21 = xor i1 %20, true
  br label %22

22:                                               ; preds = %18, %6
  %23 = phi i1 [ true, %6 ], [ %21, %18 ]
  %24 = xor i1 %23, true
  %25 = xor i1 %24, true
  %26 = zext i1 %25 to i32
  %27 = sext i32 %26 to i64
  %28 = call i64 @llvm.expect.i64(i64 %27, i64 1)
  %29 = icmp ne i64 %28, 0
  br i1 %29, label %30, label %87

30:                                               ; preds = %22
  %31 = load ptr, ptr %7, align 8, !tbaa !22
  %32 = load ptr, ptr %8, align 8, !tbaa !11
  %33 = load ptr, ptr %9, align 8, !tbaa !23
  %34 = load ptr, ptr %12, align 8, !tbaa !10
  %35 = call i32 @H5O__msg_alloc(ptr noundef %31, ptr noundef %32, ptr noundef %33, ptr noundef %10, ptr noundef %34, ptr noundef %13)
  %36 = icmp slt i32 %35, 0
  br i1 %36, label %37, label %56

37:                                               ; preds = %30
  br label %38

38:                                               ; preds = %37
  br label %39

39:                                               ; preds = %38
  br label %40

40:                                               ; preds = %39
  %41 = load i64, ptr @H5E_OHDR_g, align 8, !tbaa !17
  %42 = load i64, ptr @H5E_NOSPACE_g, align 8, !tbaa !17
  %43 = call i32 (ptr, ptr, i32, i64, i64, ptr, ...) @H5E_printf_stack(ptr noundef @.str, ptr noundef @__func__.H5O__msg_append_real, i32 noundef 192, i64 noundef %41, i64 noundef %42, ptr noundef @.str.6)
  br label %44

44:                                               ; preds = %40
  br label %45

45:                                               ; preds = %44
  store i8 1, ptr %15, align 1, !tbaa !13
  %46 = load i8, ptr %15, align 1, !tbaa !13, !range !15, !noundef !16
  %47 = trunc i8 %46 to i1
  %48 = zext i1 %47 to i8
  store i8 %48, ptr %15, align 1, !tbaa !13
  br label %49

49:                                               ; preds = %45
  br label %50

50:                                               ; preds = %49
  br label %51

51:                                               ; preds = %50
  store i32 -1, ptr %14, align 4, !tbaa !8
  br label %86

52:                                               ; No predecessors!
  br label %53

53:                                               ; preds = %52
  br label %54

54:                                               ; preds = %53
  br label %55

55:                                               ; preds = %54
  br label %56

56:                                               ; preds = %55, %30
  %57 = load ptr, ptr %7, align 8, !tbaa !22
  %58 = load ptr, ptr %8, align 8, !tbaa !11
  %59 = load i64, ptr %13, align 8, !tbaa !17
  %60 = load ptr, ptr %9, align 8, !tbaa !23
  %61 = load ptr, ptr %12, align 8, !tbaa !10
  %62 = load i32, ptr %10, align 4, !tbaa !8
  %63 = load i32, ptr %11, align 4, !tbaa !8
  %64 = call i32 @H5O__copy_mesg(ptr noundef %57, ptr noundef %58, i64 noundef %59, ptr noundef %60, ptr noundef %61, i32 noundef %62, i32 noundef %63)
  %65 = icmp slt i32 %64, 0
  br i1 %65, label %66, label %85

66:                                               ; preds = %56
  br label %67

67:                                               ; preds = %66
  br label %68

68:                                               ; preds = %67
  br label %69

69:                                               ; preds = %68
  %70 = load i64, ptr @H5E_OHDR_g, align 8, !tbaa !17
  %71 = load i64, ptr @H5E_CANTCOPY_g, align 8, !tbaa !17
  %72 = call i32 (ptr, ptr, i32, i64, i64, ptr, ...) @H5E_printf_stack(ptr noundef @.str, ptr noundef @__func__.H5O__msg_append_real, i32 noundef 196, i64 noundef %70, i64 noundef %71, ptr noundef @.str.7)
  br label %73

73:                                               ; preds = %69
  br label %74

74:                                               ; preds = %73
  store i8 1, ptr %15, align 1, !tbaa !13
  %75 = load i8, ptr %15, align 1, !tbaa !13, !range !15, !noundef !16
  %76 = trunc i8 %75 to i1
  %77 = zext i1 %76 to i8
  store i8 %77, ptr %15, align 1, !tbaa !13
  br label %78

78:                                               ; preds = %74
  br label %79

79:                                               ; preds = %78
  br label %80

80:                                               ; preds = %79
  store i32 -1, ptr %14, align 4, !tbaa !8
  br label %86

81:                                               ; No predecessors!
  br label %82

82:                                               ; preds = %81
  br label %83

83:                                               ; preds = %82
  br label %84

84:                                               ; preds = %83
  br label %85

85:                                               ; preds = %84, %56
  br label %86

86:                                               ; preds = %85, %80, %51
  br label %87

87:                                               ; preds = %86, %22
  %88 = load i32, ptr %14, align 4, !tbaa !8
  call void @llvm.lifetime.end.p0(i64 1, ptr %15) #5
  call void @llvm.lifetime.end.p0(i64 4, ptr %14) #5
  call void @llvm.lifetime.end.p0(i64 8, ptr %13) #5
  ret i32 %88
}