; Function Attrs: nounwind uwtable
define range(i32 -1, 1) i32 @H5O__msg_append_real(ptr noundef %0, ptr noundef %1, ptr noundef %2, i32 noundef %3, i32 noundef %4, ptr noundef %5) local_unnamed_addr #0 {
  %7 = alloca i32, align 4
  %8 = alloca i64, align 8
  store i32 %3, ptr %7, align 4, !tbaa !18
  call void @llvm.lifetime.start.p0(i64 8, ptr nonnull %8) #7
  %9 = load i8, ptr @H5O_init_g, align 1, !tbaa !3, !range !7, !noundef !8
  %10 = trunc nuw i8 %9 to i1
  %11 = load i8, ptr @H5_libterm_g, align 1, !range !7
  %12 = trunc nuw i8 %11 to i1
  %13 = xor i1 %12, true
  %14 = select i1 %10, i1 true, i1 %13
  br i1 %14, label %15, label %31, !prof !9

15:                                               ; preds = %6
  %16 = call i32 @H5O__msg_alloc(ptr noundef %0, ptr noundef %1, ptr noundef %2, ptr noundef nonnull %7, ptr noundef %5, ptr noundef nonnull %8)
  %17 = icmp slt i32 %16, 0
  br i1 %17, label %18, label %22

18:                                               ; preds = %15
  %19 = load i64, ptr @H5E_OHDR_g, align 8, !tbaa !10
  %20 = load i64, ptr @H5E_NOSPACE_g, align 8, !tbaa !10
  %21 = call i32 (ptr, ptr, i32, i64, i64, ptr, ...) @H5E_printf_stack(ptr noundef nonnull @.str, ptr noundef nonnull @__func__.H5O__msg_append_real, i32 noundef 192, i64 noundef %19, i64 noundef %20, ptr noundef nonnull @.str.6) #7
  br label %31

22:                                               ; preds = %15
  %23 = load i64, ptr %8, align 8, !tbaa !10
  %24 = load i32, ptr %7, align 4, !tbaa !18
  %25 = call fastcc i32 @H5O__copy_mesg(ptr noundef %0, ptr noundef %1, i64 noundef %23, ptr noundef %2, ptr noundef %5, i32 noundef %24, i32 noundef %4)
  %26 = icmp slt i32 %25, 0
  br i1 %26, label %27, label %31

27:                                               ; preds = %22
  %28 = load i64, ptr @H5E_OHDR_g, align 8, !tbaa !10
  %29 = load i64, ptr @H5E_CANTCOPY_g, align 8, !tbaa !10
  %30 = call i32 (ptr, ptr, i32, i64, i64, ptr, ...) @H5E_printf_stack(ptr noundef nonnull @.str, ptr noundef nonnull @__func__.H5O__msg_append_real, i32 noundef 196, i64 noundef %28, i64 noundef %29, ptr noundef nonnull @.str.7) #7
  br label %31

31:                                               ; preds = %18, %27, %22, %6
  %.0 = phi i32 [ -1, %18 ], [ -1, %27 ], [ 0, %22 ], [ 0, %6 ]
  call void @llvm.lifetime.end.p0(i64 8, ptr nonnull %8) #7
  ret i32 %.0
}